; Function Attrs: nounwind uwtable
define void @evp_md_ctx_clear_digest(ptr noundef %0, i32 noundef %1, i32 noundef %2) local_unnamed_addr #0 {
  %4 = getelementptr inbounds nuw i8, ptr %0, i64 56
  %5 = load ptr, ptr %4, align 8, !tbaa !3
  %.not = icmp eq ptr %5, null
  br i1 %.not, label %14, label %6

6:                                                ; preds = %3
  %7 = getelementptr inbounds nuw i8, ptr %0, i64 8
  %8 = load ptr, ptr %7, align 8, !tbaa !12
  %.not18 = icmp eq ptr %8, null
  br i1 %.not18, label %13, label %9

9:                                                ; preds = %6
  %10 = getelementptr inbounds nuw i8, ptr %8, i64 176
  %11 = load ptr, ptr %10, align 8, !tbaa !13
  %.not19 = icmp eq ptr %11, null
  br i1 %.not19, label %13, label %12

12:                                               ; preds = %9
  tail call void %11(ptr noundef nonnull %5) #8
  br label %13

13:                                               ; preds = %12, %9, %6
  store ptr null, ptr %4, align 8, !tbaa !3
  tail call void @EVP_MD_CTX_set_flags(ptr noundef nonnull %0, i32 noundef 2) #8
  br label %14

14:                                               ; preds = %13, %3
  %15 = getelementptr inbounds nuw i8, ptr %0, i64 8
  %16 = load ptr, ptr %15, align 8, !tbaa !12
  %.not.i = icmp eq ptr %16, null
  br i1 %.not.i, label %cleanup_old_md_data.exit, label %17

17:                                               ; preds = %14
  %18 = getelementptr inbounds nuw i8, ptr %16, i64 64
  %19 = load ptr, ptr %18, align 8, !tbaa !19
  %.not12.i = icmp eq ptr %19, null
  br i1 %.not12.i, label %27, label %20

20:                                               ; preds = %17
  %21 = tail call i32 @EVP_MD_CTX_test_flags(ptr noundef nonnull %0, i32 noundef 2) #8
  %.not13.i = icmp eq i32 %21, 0
  br i1 %.not13.i, label %22, label %27

22:                                               ; preds = %20
  %23 = load ptr, ptr %15, align 8, !tbaa !12
  %24 = getelementptr inbounds nuw i8, ptr %23, i64 64
  %25 = load ptr, ptr %24, align 8, !tbaa !19
  %26 = tail call i32 %25(ptr noundef nonnull %0) #8
  br label %27

27:                                               ; preds = %22, %20, %17
  %28 = getelementptr inbounds nuw i8, ptr %0, i64 32
  %29 = load ptr, ptr %28, align 8, !tbaa !20
  %.not14.i = icmp eq ptr %29, null
  br i1 %.not14.i, label %cleanup_old_md_data.exit, label %30

30:                                               ; preds = %27
  %31 = load ptr, ptr %15, align 8, !tbaa !12
  %32 = getelementptr inbounds nuw i8, ptr %31, i64 76
  %33 = load i32, ptr %32, align 4, !tbaa !21
  %34 = icmp sgt i32 %33, 0
  br i1 %34, label %35, label %cleanup_old_md_data.exit

35:                                               ; preds = %30
  %36 = tail call i32 @EVP_MD_CTX_test_flags(ptr noundef nonnull %0, i32 noundef 4) #8
  %37 = icmp eq i32 %36, 0
  %38 = icmp ne i32 %1, 0
  %or.cond.i = or i1 %38, %37
  br i1 %or.cond.i, label %39, label %cleanup_old_md_data.exit.thread

39:                                               ; preds = %35
  %40 = load ptr, ptr %28, align 8, !tbaa !20
  %41 = load ptr, ptr %15, align 8, !tbaa !12
  %42 = getelementptr inbounds nuw i8, ptr %41, i64 76
  %43 = load i32, ptr %42, align 4, !tbaa !21
  %44 = sext i32 %43 to i64
  tail call void @CRYPTO_clear_free(ptr noundef %40, i64 noundef %44, ptr noundef nonnull @.str, i32 noundef 38) #8
  store ptr null, ptr %28, align 8, !tbaa !20
  br label %cleanup_old_md_data.exit

cleanup_old_md_data.exit:                         ; preds = %14, %27, %30, %39
  %.not20 = icmp eq i32 %1, 0
  br i1 %.not20, label %cleanup_old_md_data.exit.thread, label %45

45:                                               ; preds = %cleanup_old_md_data.exit
  store ptr null, ptr %15, align 8, !tbaa !12
  br label %cleanup_old_md_data.exit.thread

cleanup_old_md_data.exit.thread:                  ; preds = %35, %45, %cleanup_old_md_data.exit
  %46 = getelementptr inbounds nuw i8, ptr %0, i64 16
  %47 = load ptr, ptr %46, align 8, !tbaa !22
  %48 = tail call i32 @ENGINE_finish(ptr noundef %47) #8
  store ptr null, ptr %46, align 8, !tbaa !22
  %.not21 = icmp eq i32 %2, 0
  br i1 %.not21, label %49, label %62

49:                                               ; preds = %cleanup_old_md_data.exit.thread
  %50 = getelementptr inbounds nuw i8, ptr %0, i64 64
  %51 = load ptr, ptr %50, align 8, !tbaa !23
  %52 = icmp eq ptr %51, null
  br i1 %52, label %EVP_MD_free.exit, label %53

53:                                               ; preds = %49
  %54 = getelementptr inbounds nuw i8, ptr %51, i64 24
  %55 = load i32, ptr %54, align 8, !tbaa !24
  %.not.i22 = icmp eq i32 %55, 0
  br i1 %.not.i22, label %56, label %EVP_MD_free.exit

56:                                               ; preds = %53
  %57 = getelementptr inbounds nuw i8, ptr %51, i64 120
  %58 = atomicrmw sub ptr %57, i32 1 release, align 4
  %59 = icmp eq i32 %58, 1
  br i1 %59, label %CRYPTO_DOWN_REF.exit.thread.i, label %CRYPTO_DOWN_REF.exit.i

CRYPTO_DOWN_REF.exit.thread.i:                    ; preds = %56
  fence acquire
  br label %61

CRYPTO_DOWN_REF.exit.i:                           ; preds = %56
  %60 = icmp sgt i32 %58, 1
  br i1 %60, label %EVP_MD_free.exit, label %61

61:                                               ; preds = %CRYPTO_DOWN_REF.exit.i, %CRYPTO_DOWN_REF.exit.thread.i
  tail call void @evp_md_free_int(ptr noundef nonnull %51) #8
  br label %EVP_MD_free.exit

EVP_MD_free.exit:                                 ; preds = %49, %53, %CRYPTO_DOWN_REF.exit.i, %61
  store ptr null, ptr %50, align 8, !tbaa !23
  store ptr null, ptr %0, align 8, !tbaa !25
  br label %62

62:                                               ; preds = %EVP_MD_free.exit, %cleanup_old_md_data.exit.thread
  ret void
}